target datalayout = "e-m:e-p270:32:32-p271:32:32-p272:64:64-i64:64-i128:128-f80:128-n8:16:32:64-S128"
target triple = "x86_64-unknown-linux-gnu"

; Function Attrs: mustprogress uwtable
define internal void @"_ZNSt14_Function_base13_Base_managerIZN6google8protobuf2io7Printer9ValueImplILb1EE18ToStringOrCallbackIZZNS2_8compiler3cpp13FileGenerator19GenerateProtoHeaderEPS4_St17basic_string_viewIcSt11char_traitsIcEEENK3$_0clEvEUlvE_vEESt7variantIJNSt7__cxx1112basic_stringIcSE_SaIcEEESt8functionIFbvEEEEOT_NS6_5Rank2EEUlvE_E9_M_createIRKSU_EEvRSt9_Any_dataSS_St17integral_constantIbLb0EE"(ptr noundef nonnull align 8 dereferenceable(16) %__dest, ptr noundef nonnull align 8 dereferenceable(17) %__f) #4 align 2 {
entry:
  %__dest.addr = alloca ptr, align 8
  %__f.addr = alloca ptr, align 8
  store ptr %__dest, ptr %__dest.addr, align 8
  store ptr %__f, ptr %__f.addr, align 8
  %call = call noalias noundef nonnull ptr @_Znwm(i64 noundef 24) #21
  %0 = load ptr, ptr %__f.addr, align 8
  call void @llvm.memcpy.p0.p0.i64(ptr align 16 %call, ptr align 8 %0, i64 24, i1 false)
  %1 = load ptr, ptr %__dest.addr, align 8
  %call1 = call noundef nonnull align 8 dereferenceable(8) ptr @"_ZNSt9_Any_data9_M_accessIPZN6google8protobuf2io7Printer9ValueImplILb1EE18ToStringOrCallbackIZZNS2_8compiler3cpp13FileGenerator19GenerateProtoHeaderEPS4_St17basic_string_viewIcSt11char_traitsIcEEENK3$_0clEvEUlvE_vEESt7variantIJNSt7__cxx1112basic_stringIcSE_SaIcEEESt8functionIFbvEEEEOT_NS6_5Rank2EEUlvE_EERSR_v"(ptr noundef nonnull align 8 dereferenceable(16) %1) #3
  store ptr %call, ptr %call1, align 8
  ret void
}

; Function Attrs: mustprogress nounwind uwtable
define linkonce_odr hidden noundef ptr @_ZNKSt9_Any_data9_M_accessEv(ptr noundef nonnull align 8 dereferenceable(16) %this) #5 comdat align 2 {
entry:
  %this.addr = alloca ptr, align 8
  store ptr %this, ptr %this.addr, align 8
  %this1 = load ptr, ptr %this.addr, align 8
  %arrayidx = getelementptr inbounds [16 x i8], ptr %this1, i64 0, i64 0
  ret ptr %arrayidx
}

; Function Attrs: mustprogress nounwind uwtable
define internal void @"_ZNSt14_Function_base13_Base_managerIZN6google8protobuf2io7Printer9ValueImplILb1EE18ToStringOrCallbackIZZNS2_8compiler3cpp13FileGenerator19GenerateProtoHeaderEPS4_St17basic_string_viewIcSt11char_traitsIcEEENK3$_0clEvEUlvE_vEESt7variantIJNSt7__cxx1112basic_stringIcSE_SaIcEEESt8functionIFbvEEEEOT_NS6_5Rank2EEUlvE_E10_M_destroyERSt9_Any_dataSt17integral_constantIbLb0EE"(ptr noundef nonnull align 8 dereferenceable(16) %__victim) #5 align 2 {
entry:
  %__victim.addr = alloca ptr, align 8
  store ptr %__victim, ptr %__victim.addr, align 8
  %0 = load ptr, ptr %__victim.addr, align 8
  %call = call noundef nonnull align 8 dereferenceable(8) ptr @"_ZNSt9_Any_data9_M_accessIPZN6google8protobuf2io7Printer9ValueImplILb1EE18ToStringOrCallbackIZZNS2_8compiler3cpp13FileGenerator19GenerateProtoHeaderEPS4_St17basic_string_viewIcSt11char_traitsIcEEENK3$_0clEvEUlvE_vEESt7variantIJNSt7__cxx1112basic_stringIcSE_SaIcEEESt8functionIFbvEEEEOT_NS6_5Rank2EEUlvE_EERSR_v"(ptr noundef nonnull align 8 dereferenceable(16) %0) #3
  %1 = load ptr, ptr %call, align 8
  %isnull = icmp eq ptr %1, null
  br i1 %isnull, label %delete.end, label %delete.notnull

delete.notnull:                                   ; preds = %entry
  call void @_ZdlPv(ptr noundef %1) #22
  br label %delete.end

delete.end:                                       ; preds = %delete.notnull, %entry
  ret void
}

; Function Attrs: mustprogress uwtable
define internal void @"_ZNSt14_Function_base13_Base_managerIZN6google8protobuf2io7Printer9ValueImplILb1EE18ToStringOrCallbackIZZNS2_8compiler3cpp13FileGenerator19GenerateProtoHeaderEPS4_St17basic_string_viewIcSt11char_traitsIcEEENK3$_0clEvEUlvE_vEESt7variantIJNSt7__cxx1112basic_stringIcSE_SaIcEEESt8functionIFbvEEEEOT_NS6_5Rank2EEUlvE_E15_M_init_functorIRKSU_EEvRSt9_Any_dataSS_"(ptr noundef nonnull align 8 dereferenceable(16) %__functor, ptr noundef nonnull align 8 dereferenceable(17) %__f) #4 align 2 {
entry:
  %__functor.addr = alloca ptr, align 8
  %__f.addr = alloca ptr, align 8
  store ptr %__functor, ptr %__functor.addr, align 8
  store ptr %__f, ptr %__f.addr, align 8
  %0 = load ptr, ptr %__functor.addr, align 8
  %1 = load ptr, ptr %__f.addr, align 8
  call void @"_ZNSt14_Function_base13_Base_managerIZN6google8protobuf2io7Printer9ValueImplILb1EE18ToStringOrCallbackIZZNS2_8compiler3cpp13FileGenerator19GenerateProtoHeaderEPS4_St17basic_string_viewIcSt11char_traitsIcEEENK3$_0clEvEUlvE_vEESt7variantIJNSt7__cxx1112basic_stringIcSE_SaIcEEESt8functionIFbvEEEEOT_NS6_5Rank2EEUlvE_E9_M_createIRKSU_EEvRSt9_Any_dataSS_St17integral_constantIbLb0EE"(ptr noundef nonnull align 8 dereferenceable(16) %0, ptr noundef nonnull align 8 dereferenceable(17) %1)
  ret void
}

; Function Attrs: mustprogress nounwind uwtable
define internal noundef nonnull align 8 dereferenceable(8) ptr @"_ZNKSt9_Any_data9_M_accessIPZN6google8protobuf2io7Printer9ValueImplILb1EE18ToStringOrCallbackIZZNS2_8compiler3cpp13FileGenerator19GenerateProtoHeaderEPS4_St17basic_string_viewIcSt11char_traitsIcEEENK3$_0clEvEUlvE_vEESt7variantIJNSt7__cxx1112basic_stringIcSE_SaIcEEESt8functionIFbvEEEEOT_NS6_5Rank2EEUlvE_EERKSR_v"(ptr noundef nonnull align 8 dereferenceable(16) %this) #5 align 2 {
entry:
  %this.addr = alloca ptr, align 8
  store ptr %this, ptr %this.addr, align 8
  %this1 = load ptr, ptr %this.addr, align 8
  %call = call noundef ptr @_ZNKSt9_Any_data9_M_accessEv(ptr noundef nonnull align 8 dereferenceable(16) %this1) #3
  ret ptr %call
}

; Function Attrs: mustprogress nounwind uwtable
define linkonce_odr hidden noundef ptr @_ZNSt9_Any_data9_M_accessEv(ptr noundef nonnull align 8 dereferenceable(16) %this) #5 comdat align 2 {
entry:
  %this.addr = alloca ptr, align 8
  store ptr %this, ptr %this.addr, align 8
  %this1 = load ptr, ptr %this.addr, align 8
  %arrayidx = getelementptr inbounds [16 x i8], ptr %this1, i64 0, i64 0
  ret ptr %arrayidx
}

; Function Attrs: mustprogress uwtable
define internal noundef zeroext i1 @"_ZNSt14_Function_base13_Base_managerIZN6google8protobuf2io7Printer9ValueImplILb1EE18ToStringOrCallbackIZZNS2_8compiler3cpp13FileGenerator19GenerateProtoHeaderEPS4_St17basic_string_viewIcSt11char_traitsIcEEENK3$_0clEvEUlvE_vEESt7variantIJNSt7__cxx1112basic_stringIcSE_SaIcEEESt8functionIFbvEEEEOT_NS6_5Rank2EEUlvE_E10_M_managerERSt9_Any_dataRKSW_St18_Manager_operation"(ptr noundef nonnull align 8 dereferenceable(16) %__dest, ptr noundef nonnull align 8 dereferenceable(16) %__source, i32 noundef %__op) #4 align 2 {
entry:
  %__dest.addr = alloca ptr, align 8
  %__source.addr = alloca ptr, align 8
  %__op.addr = alloca i32, align 4
  store ptr %__dest, ptr %__dest.addr, align 8
  store ptr %__source, ptr %__source.addr, align 8
  store i32 %__op, ptr %__op.addr, align 4
  %0 = load i32, ptr %__op.addr, align 4
  switch i32 %0, label %sw.epilog [
    i32 0, label %sw.bb
    i32 1, label %sw.bb1
    i32 2, label %sw.bb4
    i32 3, label %sw.bb6
  ]

sw.bb:                                            ; preds = %entry
  %1 = load ptr, ptr %__dest.addr, align 8
  %call = call noundef nonnull align 8 dereferenceable(8) ptr @_ZNSt9_Any_data9_M_accessIPKSt9type_infoEERT_v(ptr noundef nonnull align 8 dereferenceable(16) %1) #3
  store ptr @"_ZTIZN6google8protobuf2io7Printer9ValueImplILb1EE18ToStringOrCallbackIZZNS0_8compiler3cpp13FileGenerator19GenerateProtoHeaderEPS2_St17basic_string_viewIcSt11char_traitsIcEEENK3$_0clEvEUlvE_vEESt7variantIJNSt7__cxx1112basic_stringIcSC_SaIcEEESt8functionIFbvEEEEOT_NS4_5Rank2EEUlvE_", ptr %call, align 8
  br label %sw.epilog

sw.bb1:                                           ; preds = %entry
  %2 = load ptr, ptr %__source.addr, align 8
  %call2 = call noundef ptr @"_ZNSt14_Function_base13_Base_managerIZN6google8protobuf2io7Printer9ValueImplILb1EE18ToStringOrCallbackIZZNS2_8compiler3cpp13FileGenerator19GenerateProtoHeaderEPS4_St17basic_string_viewIcSt11char_traitsIcEEENK3$_0clEvEUlvE_vEESt7variantIJNSt7__cxx1112basic_stringIcSE_SaIcEEESt8functionIFbvEEEEOT_NS6_5Rank2EEUlvE_E14_M_get_pointerERKSt9_Any_data"(ptr noundef nonnull align 8 dereferenceable(16) %2) #3
  %3 = load ptr, ptr %__dest.addr, align 8
  %call3 = call noundef nonnull align 8 dereferenceable(8) ptr @"_ZNSt9_Any_data9_M_accessIPZN6google8protobuf2io7Printer9ValueImplILb1EE18ToStringOrCallbackIZZNS2_8compiler3cpp13FileGenerator19GenerateProtoHeaderEPS4_St17basic_string_viewIcSt11char_traitsIcEEENK3$_0clEvEUlvE_vEESt7variantIJNSt7__cxx1112basic_stringIcSE_SaIcEEESt8functionIFbvEEEEOT_NS6_5Rank2EEUlvE_EERSR_v"(ptr noundef nonnull align 8 dereferenceable(16) %3) #3
  store ptr %call2, ptr %call3, align 8
  br label %sw.epilog

sw.bb4:                                           ; preds = %entry
  %4 = load ptr, ptr %__dest.addr, align 8
  %5 = load ptr, ptr %__source.addr, align 8
  %call5 = call noundef ptr @"_ZNSt14_Function_base13_Base_managerIZN6google8protobuf2io7Printer9ValueImplILb1EE18ToStringOrCallbackIZZNS2_8compiler3cpp13FileGenerator19GenerateProtoHeaderEPS4_St17basic_string_viewIcSt11char_traitsIcEEENK3$_0clEvEUlvE_vEESt7variantIJNSt7__cxx1112basic_stringIcSE_SaIcEEESt8functionIFbvEEEEOT_NS6_5Rank2EEUlvE_E14_M_get_pointerERKSt9_Any_data"(ptr noundef nonnull align 8 dereferenceable(16) %5) #3
  call void @"_ZNSt14_Function_base13_Base_managerIZN6google8protobuf2io7Printer9ValueImplILb1EE18ToStringOrCallbackIZZNS2_8compiler3cpp13FileGenerator19GenerateProtoHeaderEPS4_St17basic_string_viewIcSt11char_traitsIcEEENK3$_0clEvEUlvE_vEESt7variantIJNSt7__cxx1112basic_stringIcSE_SaIcEEESt8functionIFbvEEEEOT_NS6_5Rank2EEUlvE_E15_M_init_functorIRKSU_EEvRSt9_Any_dataSS_"(ptr noundef nonnull align 8 dereferenceable(16) %4, ptr noundef nonnull align 8 dereferenceable(17) %call5)
  br label %sw.epilog

sw.bb6:                                           ; preds = %entry
  %6 = load ptr, ptr %__dest.addr, align 8
  call void @"_ZNSt14_Function_base13_Base_managerIZN6google8protobuf2io7Printer9ValueImplILb1EE18ToStringOrCallbackIZZNS2_8compiler3cpp13FileGenerator19GenerateProtoHeaderEPS4_St17basic_string_viewIcSt11char_traitsIcEEENK3$_0clEvEUlvE_vEESt7variantIJNSt7__cxx1112basic_stringIcSE_SaIcEEESt8functionIFbvEEEEOT_NS6_5Rank2EEUlvE_E10_M_destroyERSt9_Any_dataSt17integral_constantIbLb0EE"(ptr noundef nonnull align 8 dereferenceable(16) %6)
  br label %sw.epilog

sw.epilog:                                        ; preds = %sw.bb6, %sw.bb4, %sw.bb1, %sw.bb, %entry
  ret i1 false
}

; Function Attrs: mustprogress nounwind uwtable
define internal noundef nonnull align 8 dereferenceable(8) ptr @"_ZNSt9_Any_data9_M_accessIPZN6google8protobuf2io7Printer9ValueImplILb1EE18ToStringOrCallbackIZZNS2_8compiler3cpp13FileGenerator19GenerateProtoHeaderEPS4_St17basic_string_viewIcSt11char_traitsIcEEENK3$_0clEvEUlvE_vEESt7variantIJNSt7__cxx1112basic_stringIcSE_SaIcEEESt8functionIFbvEEEEOT_NS6_5Rank2EEUlvE_EERSR_v"(ptr noundef nonnull align 8 dereferenceable(16) %this) #5 align 2 {
entry:
  %this.addr = alloca ptr, align 8
  store ptr %this, ptr %this.addr, align 8
  %this1 = load ptr, ptr %this.addr, align 8
  %call = call noundef ptr @_ZNSt9_Any_data9_M_accessEv(ptr noundef nonnull align 8 dereferenceable(16) %this1) #3
  ret ptr %call
}

; Function Attrs: mustprogress nounwind uwtable
define internal noundef ptr @"_ZNSt14_Function_base13_Base_managerIZN6google8protobuf2io7Printer9ValueImplILb1EE18ToStringOrCallbackIZZNS2_8compiler3cpp13FileGenerator19GenerateProtoHeaderEPS4_St17basic_string_viewIcSt11char_traitsIcEEENK3$_0clEvEUlvE_vEESt7variantIJNSt7__cxx1112basic_stringIcSE_SaIcEEESt8functionIFbvEEEEOT_NS6_5Rank2EEUlvE_E14_M_get_pointerERKSt9_Any_data"(ptr noundef nonnull align 8 dereferenceable(16) %__source) #5 align 2 {
entry:
  %__source.addr = alloca ptr, align 8
  store ptr %__source, ptr %__source.addr, align 8
  %0 = load ptr, ptr %__source.addr, align 8
  %call = call noundef nonnull align 8 dereferenceable(8) ptr @"_ZNKSt9_Any_data9_M_accessIPZN6google8protobuf2io7Printer9ValueImplILb1EE18ToStringOrCallbackIZZNS2_8compiler3cpp13FileGenerator19GenerateProtoHeaderEPS4_St17basic_string_viewIcSt11char_traitsIcEEENK3$_0clEvEUlvE_vEESt7variantIJNSt7__cxx1112basic_stringIcSE_SaIcEEESt8functionIFbvEEEEOT_NS6_5Rank2EEUlvE_EERKSR_v"(ptr noundef nonnull align 8 dereferenceable(16) %0) #3
  %1 = load ptr, ptr %call, align 8
  ret ptr %1
}

; Function Attrs: mustprogress nounwind uwtable
define linkonce_odr hidden noundef nonnull align 8 dereferenceable(8) ptr @_ZNSt9_Any_data9_M_accessIPKSt9type_infoEERT_v(ptr noundef nonnull align 8 dereferenceable(16) %this) #5 comdat align 2 {
entry:
  %this.addr = alloca ptr, align 8
  store ptr %this, ptr %this.addr, align 8
  %this1 = load ptr, ptr %this.addr, align 8
  %call = call noundef ptr @_ZNSt9_Any_data9_M_accessEv(ptr noundef nonnull align 8 dereferenceable(16) %this1) #3
  ret ptr %call
}

; Function Attrs: mustprogress uwtable
define internal noundef zeroext i1 @"_ZNSt17_Function_handlerIFbvEZN6google8protobuf2io7Printer9ValueImplILb1EE18ToStringOrCallbackIZZNS2_8compiler3cpp13FileGenerator19GenerateProtoHeaderEPS4_St17basic_string_viewIcSt11char_traitsIcEEENK3$_0clEvEUlvE_vEESt7variantIJNSt7__cxx1112basic_stringIcSE_SaIcEEESt8functionIS0_EEEOT_NS6_5Rank2EEUlvE_E10_M_managerERSt9_Any_dataRKSV_St18_Manager_operation"(ptr noundef nonnull align 8 dereferenceable(16) %__dest, ptr noundef nonnull align 8 dereferenceable(16) %__source, i32 noundef %__op) #4 align 2 {
entry:
  %__dest.addr = alloca ptr, align 8
  %__source.addr = alloca ptr, align 8
  %__op.addr = alloca i32, align 4
  store ptr %__dest, ptr %__dest.addr, align 8
  store ptr %__source, ptr %__source.addr, align 8
  store i32 %__op, ptr %__op.addr, align 4
  %0 = load i32, ptr %__op.addr, align 4
  switch i32 %0, label %sw.default [
    i32 0, label %sw.bb
    i32 1, label %sw.bb1
  ]

sw.bb:                                            ; preds = %entry
  %1 = load ptr, ptr %__dest.addr, align 8
  %call = call noundef nonnull align 8 dereferenceable(8) ptr @_ZNSt9_Any_data9_M_accessIPKSt9type_infoEERT_v(ptr noundef nonnull align 8 dereferenceable(16) %1) #3
  store ptr @"_ZTIZN6google8protobuf2io7Printer9ValueImplILb1EE18ToStringOrCallbackIZZNS0_8compiler3cpp13FileGenerator19GenerateProtoHeaderEPS2_St17basic_string_viewIcSt11char_traitsIcEEENK3$_0clEvEUlvE_vEESt7variantIJNSt7__cxx1112basic_stringIcSC_SaIcEEESt8functionIFbvEEEEOT_NS4_5Rank2EEUlvE_", ptr %call, align 8
  br label %sw.epilog

sw.bb1:                                           ; preds = %entry
  %2 = load ptr, ptr %__source.addr, align 8
  %call2 = call noundef ptr @"_ZNSt14_Function_base13_Base_managerIZN6google8protobuf2io7Printer9ValueImplILb1EE18ToStringOrCallbackIZZNS2_8compiler3cpp13FileGenerator19GenerateProtoHeaderEPS4_St17basic_string_viewIcSt11char_traitsIcEEENK3$_0clEvEUlvE_vEESt7variantIJNSt7__cxx1112basic_stringIcSE_SaIcEEESt8functionIFbvEEEEOT_NS6_5Rank2EEUlvE_E14_M_get_pointerERKSt9_Any_data"(ptr noundef nonnull align 8 dereferenceable(16) %2) #3
  %3 = load ptr, ptr %__dest.addr, align 8
  %call3 = call noundef nonnull align 8 dereferenceable(8) ptr @"_ZNSt9_Any_data9_M_accessIPZN6google8protobuf2io7Printer9ValueImplILb1EE18ToStringOrCallbackIZZNS2_8compiler3cpp13FileGenerator19GenerateProtoHeaderEPS4_St17basic_string_viewIcSt11char_traitsIcEEENK3$_0clEvEUlvE_vEESt7variantIJNSt7__cxx1112basic_stringIcSE_SaIcEEESt8functionIFbvEEEEOT_NS6_5Rank2EEUlvE_EERSR_v"(ptr noundef nonnull align 8 dereferenceable(16) %3) #3
  store ptr %call2, ptr %call3, align 8
  br label %sw.epilog

sw.default:                                       ; preds = %entry
  %4 = load ptr, ptr %__dest.addr, align 8
  %5 = load ptr, ptr %__source.addr, align 8
  %6 = load i32, ptr %__op.addr, align 4
  %call4 = call noundef zeroext i1 @"_ZNSt14_Function_base13_Base_managerIZN6google8protobuf2io7Printer9ValueImplILb1EE18ToStringOrCallbackIZZNS2_8compiler3cpp13FileGenerator19GenerateProtoHeaderEPS4_St17basic_string_viewIcSt11char_traitsIcEEENK3$_0clEvEUlvE_vEESt7variantIJNSt7__cxx1112basic_stringIcSE_SaIcEEESt8functionIFbvEEEEOT_NS6_5Rank2EEUlvE_E10_M_managerERSt9_Any_dataRKSW_St18_Manager_operation"(ptr noundef nonnull align 8 dereferenceable(16) %4, ptr noundef nonnull align 8 dereferenceable(16) %5, i32 noundef %6)
  br label %sw.epilog

sw.epilog:                                        ; preds = %sw.default, %sw.bb1, %sw.bb
  ret i1 false
}